target datalayout = "e-m:e-p270:32:32-p271:32:32-p272:64:64-i64:64-i128:128-f80:128-n8:16:32:64-S128"
target triple = "x86_64-pc-linux-gnu"

@raknet_handle = internal global ptr null, align 8
@RAKNET_OFFLINE_MESSAGE_DATA_ID = internal global [16 x i8] c"\00\FF\FF\00\FE\FE\FE\FE\FD\FD\FD\FD\124Vx", align 16

; Function Attrs: null_pointer_is_valid sspstrong uwtable
define internal zeroext i1 @test_raknet_heur(ptr noundef %0, ptr noundef %1, ptr noundef %2, ptr noundef %3) #0 {
  %5 = alloca i1, align 1
  %6 = alloca ptr, align 8
  %7 = alloca ptr, align 8
  %8 = alloca ptr, align 8
  %9 = alloca ptr, align 8
  store ptr %0, ptr %6, align 8
  store ptr %1, ptr %7, align 8
  store ptr %2, ptr %8, align 8
  store ptr %3, ptr %9, align 8
  %10 = load ptr, ptr %6, align 8
  %11 = call i32 @tvb_memeql(ptr noundef %10, i32 noundef 9, ptr noundef @RAKNET_OFFLINE_MESSAGE_DATA_ID, i64 noundef 16)
  %12 = icmp eq i32 %11, 0
  br i1 %12, label %13, label %14

13:                                               ; preds = %4
  store i1 true, ptr %5, align 1
  br label %25

14:                                               ; preds = %4
  %15 = load ptr, ptr %6, align 8
  %16 = call i32 @tvb_memeql(ptr noundef %15, i32 noundef 1, ptr noundef @RAKNET_OFFLINE_MESSAGE_DATA_ID, i64 noundef 16)
  %17 = icmp eq i32 %16, 0
  br i1 %17, label %18, label %19

18:                                               ; preds = %14
  store i1 true, ptr %5, align 1
  br label %25

19:                                               ; preds = %14
  %20 = load ptr, ptr %6, align 8
  %21 = call i32 @tvb_memeql(ptr noundef %20, i32 noundef 17, ptr noundef @RAKNET_OFFLINE_MESSAGE_DATA_ID, i64 noundef 16)
  %22 = icmp eq i32 %21, 0
  br i1 %22, label %23, label %24

23:                                               ; preds = %19
  store i1 true, ptr %5, align 1
  br label %25

24:                                               ; preds = %19
  store i1 false, ptr %5, align 1
  br label %25

25:                                               ; preds = %24, %23, %18, %13
  %26 = load i1, ptr %5, align 1
  ret i1 %26
}

; Function Attrs: null_pointer_is_valid sspstrong uwtable
define internal zeroext i1 @dissect_raknet_heur(ptr noundef %0, ptr noundef %1, ptr noundef %2, ptr noundef %3) #0 {
  %5 = alloca i1, align 1
  %6 = alloca ptr, align 8
  %7 = alloca ptr, align 8
  %8 = alloca ptr, align 8
  %9 = alloca ptr, align 8
  %10 = alloca ptr, align 8
  store ptr %0, ptr %6, align 8
  store ptr %1, ptr %7, align 8
  store ptr %2, ptr %8, align 8
  store ptr %3, ptr %9, align 8
  %11 = load ptr, ptr %6, align 8
  %12 = load ptr, ptr %7, align 8
  %13 = load ptr, ptr %8, align 8
  %14 = load ptr, ptr %9, align 8
  %15 = call zeroext i1 @test_raknet_heur(ptr noundef %11, ptr noundef %12, ptr noundef %13, ptr noundef %14)
  br i1 %15, label %16, label %28

16:                                               ; preds = %4
  call void @llvm.lifetime.start.p0(i64 8, ptr %10) #6
  %17 = load ptr, ptr %7, align 8
  %18 = call ptr @find_or_create_conversation(ptr noundef %17)
  store ptr %18, ptr %10, align 8
  %19 = load ptr, ptr %10, align 8
  %20 = load ptr, ptr @raknet_handle, align 8
  call void @conversation_set_dissector(ptr noundef %19, ptr noundef %20)
  %21 = load ptr, ptr @raknet_handle, align 8
  %22 = load ptr, ptr %6, align 8
  %23 = load ptr, ptr %7, align 8
  %24 = load ptr, ptr %8, align 8
  %25 = load ptr, ptr %9, align 8
  %26 = call i32 @call_dissector_only(ptr noundef %21, ptr noundef %22, ptr noundef %23, ptr noundef %24, ptr noundef %25)
  %27 = icmp sgt i32 %26, 0
  store i1 %27, ptr %5, align 1
  call void @llvm.lifetime.end.p0(i64 8, ptr %10) #6
  br label %29

28:                                               ; preds = %4
  store i1 false, ptr %5, align 1
  br label %29

29:                                               ; preds = %28, %16
  %30 = load i1, ptr %5, align 1
  ret i1 %30
}