; Function Attrs: null_pointer_is_valid sspstrong uwtable
define internal zeroext i1 @dissect_raknet_heur(ptr noundef %0, ptr noundef %1, ptr noundef %2, ptr noundef %3) #0 {
  %5 = tail call i32 @tvb_memeql(ptr noundef %0, i32 noundef 9, ptr noundef nonnull @RAKNET_OFFLINE_MESSAGE_DATA_ID, i64 noundef 16)
  %6 = icmp eq i32 %5, 0
  br i1 %6, label %test_raknet_heur.exit.thread, label %7

7:                                                ; preds = %4
  %8 = tail call i32 @tvb_memeql(ptr noundef %0, i32 noundef 1, ptr noundef nonnull @RAKNET_OFFLINE_MESSAGE_DATA_ID, i64 noundef 16)
  %9 = icmp eq i32 %8, 0
  br i1 %9, label %test_raknet_heur.exit.thread, label %test_raknet_heur.exit

test_raknet_heur.exit:                            ; preds = %7
  %10 = tail call i32 @tvb_memeql(ptr noundef %0, i32 noundef 17, ptr noundef nonnull @RAKNET_OFFLINE_MESSAGE_DATA_ID, i64 noundef 16)
  %11 = icmp eq i32 %10, 0
  br i1 %11, label %test_raknet_heur.exit.thread, label %17

test_raknet_heur.exit.thread:                     ; preds = %7, %4, %test_raknet_heur.exit
  %12 = tail call ptr @find_or_create_conversation(ptr noundef %1)
  %13 = load ptr, ptr @raknet_handle, align 8
  tail call void @conversation_set_dissector(ptr noundef %12, ptr noundef %13)
  %14 = load ptr, ptr @raknet_handle, align 8
  %15 = tail call i32 @call_dissector_only(ptr noundef %14, ptr noundef %0, ptr noundef %1, ptr noundef %2, ptr noundef %3)
  %16 = icmp sgt i32 %15, 0
  br label %17

17:                                               ; preds = %test_raknet_heur.exit, %test_raknet_heur.exit.thread
  %.0 = phi i1 [ %16, %test_raknet_heur.exit.thread ], [ false, %test_raknet_heur.exit ]
  ret i1 %.0
}